(dp1
S'series_pepito'
p2
ccopy_reg
_reconstructor
p3
(ctwisted.plugin
CachedDropin
p4
c__builtin__
object
p5
NtRp6
(dp7
S'moduleName'
p8
S'liberbot.spiders.series_pepito'
p9
sS'description'
p10
NsS'plugins'
p11
(lp12
g3
(ctwisted.plugin
CachedPlugin
p13
g5
NtRp14
(dp15
S'provided'
p16
(lp17
cscrapy.spider.models
ISpider
p18
asS'dropin'
p19
g6
sS'name'
p20
S'SPIDER'
p21
sg10
S"\n    seriespepito.com crawler, returns Items 'serie', 'titulo', 'temporada',\n    'episodio', 'idioma', 'subtitulos', 'links' and 'sublink'. \n\n    Usage: python scrapy-ctl crawl series-pepito --set LETTER=LETTER\n    "
p22
sbasbsS'ezrss'
p23
g3
(g4
g5
NtRp24
(dp25
S'moduleName'
p26
S'liberbot.spiders.ezrss'
p27
sS'description'
p28
NsS'plugins'
p29
(lp30
g3
(g13
g5
NtRp31
(dp32
S'provided'
p33
(lp34
g18
asS'dropin'
p35
g24
sS'name'
p36
S'SPIDER'
p37
sg28
S"\n    EZRSS: eztv.it RSS crawler, returns Items 'serie', 'titulo', 'temporada',\n    'episodio', 'idioma', 'subtitulos', 'links' and 'sublink'. \n\n    Usage: python scrapy-ctl crawl ezrss \n    "
p38
sbasbsS'serie_online_rss'
p39
g3
(g4
g5
NtRp40
(dp41
g8
S'liberbot.spiders.serie_online_rss'
p42
sg10
Nsg11
(lp43
g3
(g13
g5
NtRp44
(dp45
g16
(lp46
g18
asg19
g40
sg20
g21
sg10
S"\n    serieonline.net RSS crawler, returns Items 'serie', 'titulo', 'temporada',\n    'episodio', 'idioma', 'subtitulos', 'links' and 'sublink'. \n\n    Usage: python scrapy-ctl crawl serie-online-rss \n    "
p47
sbasbsS'serie_online'
p48
g3
(g4
g5
NtRp49
(dp50
g8
S'liberbot.spiders.serie_online'
p51
sg10
Nsg11
(lp52
g3
(g13
g5
NtRp53
(dp54
g16
(lp55
g18
asg19
g49
sg20
g21
sg10
S"\n    serieonline.net crawler, returns Items 'serie', 'titulo', 'temporada',\n    'episodio', 'idioma', 'subtitulos', 'links' and 'sublink'. \n\n    Usage: python scrapy-ctl crawl serie-online --set LETTER=LETTER\n    "
p56
sbasbsS'eztv'
p57
g3
(g4
g5
NtRp58
(dp59
S'moduleName'
p60
S'liberbot.spiders.eztv'
p61
sS'description'
p62
NsS'plugins'
p63
(lp64
g3
(g13
g5
NtRp65
(dp66
S'provided'
p67
(lp68
g18
asS'dropin'
p69
g58
sS'name'
p70
S'SPIDER'
p71
sg62
S"\n    eztv.it crawler, returns Items 'serie', 'title', 'temp',\n    'epi', 'lang', 'sublang', 'links' and 'sublink'. \n\n    Usage: python scrapy-ctl crawl eztv --set LETTER=LETTER\n    "
p72
sbasbsS'series_21'
p73
g3
(g4
g5
NtRp74
(dp75
g8
S'liberbot.spiders.series_21'
p76
sg10
Nsg11
(lp77
g3
(g13
g5
NtRp78
(dp79
g16
(lp80
g18
asg19
g74
sg20
S'Spider'
p81
sg10
S"\n    series21.com crawler, returns Items 'serie', 'titulo', 'temporada',\n    'episodio', 'idioma', 'subtitulos', 'links' and 'sublink'. \n\n    Usage: python scrapy-ctl crawl series-21 --set LETTER=LETTER\n    "
p82
sbasbsS'tumejortv'
p83
g3
(g4
g5
NtRp84
(dp85
g8
S'liberbot.spiders.tumejortv'
p86
sg10
Nsg11
(lp87
g3
(g13
g5
NtRp88
(dp89
g16
(lp90
g18
asg19
g84
sg20
g81
sg10
S"\n    tumejortv.com crawler, returns Items 'serie', 'titulo', 'temporada',\n    'episodio', 'idioma', 'subtitulos', 'links' and 'sublink'. \n\n    Usage: python scrapy-ctl crawl tumejortv --set LETTER=LETTER\n    "
p91
sbasbsS'series_danko'
p92
g3
(g4
g5
NtRp93
(dp94
g8
S'liberbot.spiders.series_danko'
p95
sg10
Nsg11
(lp96
g3
(g13
g5
NtRp97
(dp98
g16
(lp99
g18
asg19
g93
sg20
g81
sg10
S"\n    seriesdanko.com crawler, returns Items 'serie', 'titulo', 'temporada',\n    'episodio', 'idioma', 'subtitulos', 'links' and 'sublink'. \n\n    Usage: python scrapy-ctl crawl series-danko --set LETTER=LETTER\n    "
p100
sbasbs.